(dp0
S'TWOTAIL'
p1
(dp2
I1
(dp3
S'0.1'
p4
F6.3137999999999996
sS'0.01'
p5
F63.655099999999997
sS'0.05'
p6
F12.7065
sS'0.02'
p7
F31.819299999999998
sS'0.005'
p8
F127.3447
sS'0.002'
p9
F318.49299999999999
sS'0.001'
p10
F636.04499999999996
ssI2
(dp11
g4
F2.9199999999999999
sg5
F9.9246999999999996
sg6
F4.3026
sg7
F6.9645999999999999
sg8
F14.088699999999999
sg9
F22.3276
sg10
F31.5989
ssI3
(dp12
g4
F2.3534000000000002
sg5
F5.8407999999999998
sg6
F3.1823999999999999
sg7
F4.5407000000000002
sg8
F7.4534000000000002
sg9
F10.214499999999999
sg10
F12.924200000000001
ssI4
(dp13
g4
F2.1318999999999999
sg5
F4.6040999999999999
sg6
F2.7764000000000002
sg7
F3.7469999999999999
sg8
F5.5975999999999999
sg9
F7.1731999999999996
sg10
F8.6103000000000005
ssI5
(dp14
g4
F2.0150000000000001
sg5
F4.0321999999999996
sg6
F2.5706000000000002
sg7
F3.3650000000000002
sg8
F4.7733999999999996
sg9
F5.8933999999999997
sg10
F6.8688000000000002
ssI6
(dp15
g4
F1.9432
sg5
F3.7073999999999998
sg6
F2.4468999999999999
sg7
F3.1425999999999998
sg8
F4.3167999999999997
sg9
F5.2076000000000002
sg10
F5.9588999999999999
ssI7
(dp16
g4
F1.8946000000000001
sg5
F3.4994999999999998
sg6
F2.3645999999999998
sg7
F2.9980000000000002
sg8
F4.0293999999999999
sg9
F4.7851999999999997
sg10
F5.4078999999999997
ssI8
(dp17
g4
F1.8594999999999999
sg5
F3.3553999999999999
sg6
F2.306
sg7
F2.8965000000000001
sg8
F3.8325
sg9
F4.5007999999999999
sg10
F5.0414000000000003
ssI9
(dp18
g4
F1.8331
sg5
F3.2498
sg6
F2.2621000000000002
sg7
F2.8214000000000001
sg8
F3.6896
sg9
F4.2968999999999999
sg10
F4.7808999999999999
ssI10
(dp19
g4
F1.8124
sg5
F3.1692999999999998
sg6
F2.2282000000000002
sg7
F2.7637999999999998
sg8
F3.5813999999999999
sg9
F4.1436999999999999
sg10
F4.5869
ssI11
(dp20
g4
F1.7959000000000001
sg5
F3.1057999999999999
sg6
F2.2010000000000001
sg7
F2.7181000000000002
sg8
F3.4965999999999999
sg9
F4.0247000000000002
sg10
F4.4368999999999996
ssI12
(dp21
g4
F1.7823
sg5
F3.0545
sg6
F2.1787999999999998
sg7
F2.681
sg8
F3.4283999999999999
sg9
F3.9296000000000002
sg10
F4.3178000000000001
ssI13
(dp22
g4
F1.7708999999999999
sg5
F3.0123000000000002
sg6
F2.1604000000000001
sg7
F2.6503000000000001
sg8
F3.3725000000000001
sg9
F3.8519999999999999
sg10
F4.2207999999999997
ssI14
(dp23
g4
F1.7613000000000001
sg5
F2.9767999999999999
sg6
F2.1448
sg7
F2.6244999999999998
sg8
F3.3256999999999999
sg9
F3.7873999999999999
sg10
F4.1403999999999996
ssI15
(dp24
g4
F1.7529999999999999
sg5
F2.9466999999999999
sg6
F2.1314000000000002
sg7
F2.6025
sg8
F3.286
sg9
F3.7328000000000001
sg10
F4.0728
ssI16
(dp25
g4
F1.7459
sg5
F2.9207999999999998
sg6
F2.1198999999999999
sg7
F2.5834999999999999
sg8
F3.2519999999999998
sg9
F3.6861000000000002
sg10
F4.0149999999999997
ssI17
(dp26
g4
F1.7396
sg5
F2.8982999999999999
sg6
F2.1097999999999999
sg7
F2.5669
sg8
F3.2223999999999999
sg9
F3.6457999999999999
sg10
F3.9651000000000001
ssI18
(dp27
g4
F1.7341
sg5
F2.8784000000000001
sg6
F2.1009000000000002
sg7
F2.5524
sg8
F3.1966000000000001
sg9
F3.6105
sg10
F3.9216000000000002
ssI19
(dp28
g4
F1.7291000000000001
sg5
F2.8609
sg6
F2.093
sg7
F2.5394999999999999
sg8
F3.1737000000000002
sg9
F3.5794000000000001
sg10
F3.8834
ssI20
(dp29
g4
F1.7246999999999999
sg5
F2.8454000000000002
sg6
F2.0859999999999999
sg7
F2.528
sg8
F3.1534
sg9
F3.5518000000000001
sg10
F3.8494999999999999
ssI21
(dp30
g4
F1.7206999999999999
sg5
F2.8313999999999999
sg6
F2.0796000000000001
sg7
F2.5175999999999998
sg8
F3.1352000000000002
sg9
F3.5272000000000001
sg10
F3.8193000000000001
ssI22
(dp31
g4
F1.7172000000000001
sg5
F2.8188
sg6
F2.0739000000000001
sg7
F2.5083000000000002
sg8
F3.1187999999999998
sg9
F3.5049999999999999
sg10
F3.7921
ssI23
(dp32
g4
F1.7139
sg5
F2.8073000000000001
sg6
F2.0686
sg7
F2.4998
sg8
F3.1040000000000001
sg9
F3.4849999999999999
sg10
F3.7675999999999998
ssI24
(dp33
g4
F1.7109000000000001
sg5
F2.7970000000000002
sg6
F2.0638999999999998
sg7
F2.4922
sg8
F3.0905
sg9
F3.4668000000000001
sg10
F3.7454000000000001
ssI25
(dp34
g4
F1.7081
sg5
F2.7873999999999999
sg6
F2.0596000000000001
sg7
F2.4851000000000001
sg8
F3.0781999999999998
sg9
F3.4502000000000002
sg10
F3.7250999999999999
ssI26
(dp35
g4
F1.7056
sg5
F2.7787000000000002
sg6
F2.0554999999999999
sg7
F2.4786000000000001
sg8
F3.0669
sg9
F3.4350000000000001
sg10
F3.7067000000000001
ssI27
(dp36
g4
F1.7033
sg5
F2.7707000000000002
sg6
F2.0518000000000001
sg7
F2.4727000000000001
sg8
F3.0565000000000002
sg9
F3.4211
sg10
F3.6896
ssI28
(dp37
g4
F1.7011000000000001
sg5
F2.7633000000000001
sg6
F2.0484
sg7
F2.4670999999999998
sg8
F3.0468999999999999
sg9
F3.4081999999999999
sg10
F3.6739000000000002
ssI29
(dp38
g4
F1.6991000000000001
sg5
F2.7564000000000002
sg6
F2.0451999999999999
sg7
F2.4620000000000002
sg8
F3.0379999999999998
sg9
F3.3961999999999999
sg10
F3.6594000000000002
ssI30
(dp39
g4
F1.6973
sg5
F2.75
sg6
F2.0423
sg7
F2.4571999999999998
sg8
F3.0297999999999998
sg9
F3.3852000000000002
sg10
F3.6459000000000001
ssI31
(dp40
g4
F1.6955
sg5
F2.7440000000000002
sg6
F2.0394999999999999
sg7
F2.4527999999999999
sg8
F3.0221
sg9
F3.3748999999999998
sg10
F3.6334
ssI32
(dp41
g4
F1.6939
sg5
F2.7385000000000002
sg6
F2.0369000000000002
sg7
F2.4487000000000001
sg8
F3.0150000000000001
sg9
F3.3653
sg10
F3.6217999999999999
ssI33
(dp42
g4
F1.6923999999999999
sg5
F2.7332999999999998
sg6
F2.0345
sg7
F2.4447999999999999
sg8
F3.0082
sg9
F3.3563000000000001
sg10
F3.6109
ssI34
(dp43
g4
F1.6909000000000001
sg5
F2.7284000000000002
sg6
F2.0322
sg7
F2.4411
sg8
F3.0019
sg9
F3.3479000000000001
sg10
F3.6008
ssI35
(dp44
g4
F1.6896
sg5
F2.7238000000000002
sg6
F2.0301
sg7
F2.4377
sg8
F2.9961000000000002
sg9
F3.3399999999999999
sg10
F3.5912000000000002
ssI36
(dp45
g4
F1.6882999999999999
sg5
F2.7195
sg6
F2.0280999999999998
sg7
F2.4344999999999999
sg8
F2.9904999999999999
sg9
F3.3325999999999998
sg10
F3.5821999999999998
ssI37
(dp46
g4
F1.6871
sg5
F2.7153999999999998
sg6
F2.0261999999999998
sg7
F2.4315000000000002
sg8
F2.9853000000000001
sg9
F3.3256000000000001
sg10
F3.5737000000000001
ssI38
(dp47
g4
F1.6859
sg5
F2.7115
sg6
F2.0244
sg7
F2.4285999999999999
sg8
F2.9803000000000002
sg9
F3.319
sg10
F3.5657000000000001
ssI39
(dp48
g4
F1.6849000000000001
sg5
F2.7079
sg6
F2.0226999999999999
sg7
F2.4258000000000002
sg8
F2.9756
sg9
F3.3128000000000002
sg10
F3.5581
ssI40
(dp49
g4
F1.6839
sg5
F2.7044999999999999
sg6
F2.0211000000000001
sg7
F2.4232999999999998
sg8
F2.9712000000000001
sg9
F3.3069000000000002
sg10
F3.5510000000000002
ssI41
(dp50
g4
F1.6829000000000001
sg5
F2.7012
sg6
F2.0196000000000001
sg7
F2.4207999999999998
sg8
F2.9670000000000001
sg9
F3.3012999999999999
sg10
F3.5442
ssI42
(dp51
g4
F1.6819999999999999
sg5
F2.6981000000000002
sg6
F2.0181
sg7
F2.4184999999999999
sg8
F2.9630000000000001
sg9
F3.2959000000000001
sg10
F3.5377999999999998
ssI43
(dp52
g4
F1.6811
sg5
F2.6951000000000001
sg6
F2.0167000000000002
sg7
F2.4161999999999999
sg8
F2.9590999999999998
sg9
F3.2909000000000002
sg10
F3.5316000000000001
ssI44
(dp53
g4
F1.6801999999999999
sg5
F2.6922999999999999
sg6
F2.0154000000000001
sg7
F2.4142000000000001
sg8
F2.9554999999999998
sg9
F3.2860999999999998
sg10
F3.5257999999999998
ssI45
(dp54
g4
F1.6794
sg5
F2.6896
sg6
F2.0141
sg7
F2.4121000000000001
sg8
F2.9521000000000002
sg9
F3.2814999999999999
sg10
F3.5202
ssI46
(dp55
g4
F1.6787000000000001
sg5
F2.6869999999999998
sg6
F2.0129000000000001
sg7
F2.4102000000000001
sg8
F2.9487999999999999
sg9
F3.2770999999999999
sg10
F3.5148999999999999
ssI47
(dp56
g4
F1.6778999999999999
sg5
F2.6846000000000001
sg6
F2.0116999999999998
sg7
F2.4083000000000001
sg8
F2.9456000000000002
sg9
F3.2728999999999999
sg10
F3.5099
ssI48
(dp57
g4
F1.6772
sg5
F2.6821999999999999
sg6
F2.0106000000000002
sg7
F2.4066000000000001
sg8
F2.9426000000000001
sg9
F3.2688999999999999
sg10
F3.5051000000000001
ssI49
(dp58
g4
F1.6766000000000001
sg5
F2.6800000000000002
sg6
F2.0095999999999998
sg7
F2.4049
sg8
F2.9397000000000002
sg9
F3.2650999999999999
sg10
F3.5004
ssI50
(dp59
g4
F1.6758999999999999
sg5
F2.6778
sg6
F2.0085999999999999
sg7
F2.4033000000000002
sg8
F2.9369999999999998
sg9
F3.2614000000000001
sg10
F3.496
ssI51
(dp60
g4
F1.6753
sg5
F2.6757
sg6
F2.0076000000000001
sg7
F2.4016999999999999
sg8
F2.9342999999999999
sg9
F3.2578999999999998
sg10
F3.4916999999999998
ssI52
(dp61
g4
F1.6747000000000001
sg5
F2.6737000000000002
sg6
F2.0066000000000002
sg7
F2.4001999999999999
sg8
F2.9318
sg9
F3.2545000000000002
sg10
F3.4876999999999998
ssI53
(dp62
g4
F1.6740999999999999
sg5
F2.6718000000000002
sg6
F2.0057
sg7
F2.3988
sg8
F2.9293
sg9
F3.2513000000000001
sg10
F3.4838
ssI54
(dp63
g4
F1.6736
sg5
F2.6699999999999999
sg6
F2.0049000000000001
sg7
F2.3974000000000002
sg8
F2.927
sg9
F3.2482000000000002
sg10
F3.48
ssI55
(dp64
g4
F1.673
sg5
F2.6682000000000001
sg6
F2.0041000000000002
sg7
F2.3961000000000001
sg8
F2.9247000000000001
sg9
F3.2450999999999999
sg10
F3.4763999999999999
ssI56
(dp65
g4
F1.6725000000000001
sg5
F2.6665000000000001
sg6
F2.0032000000000001
sg7
F2.3948
sg8
F2.9224999999999999
sg9
F3.2423000000000002
sg10
F3.4729999999999999
ssI57
(dp66
g4
F1.6719999999999999
sg5
F2.6648999999999998
sg6
F2.0024999999999999
sg7
F2.3936000000000002
sg8
F2.9203999999999999
sg9
F3.2393999999999998
sg10
F3.4695999999999998
ssI58
(dp67
g4
F1.6715
sg5
F2.6633
sg6
F2.0017
sg7
F2.3923999999999999
sg8
F2.9184000000000001
sg9
F3.2368000000000001
sg10
F3.4662999999999999
ssI59
(dp68
g4
F1.6711
sg5
F2.6617999999999999
sg6
F2.0009999999999999
sg7
F2.3912
sg8
F2.9163999999999999
sg9
F3.2342
sg10
F3.4632000000000001
ssI60
(dp69
g4
F1.6706000000000001
sg5
F2.6602999999999999
sg6
F2.0003000000000002
sg7
F2.3900999999999999
sg8
F2.9146000000000001
sg9
F3.2317
sg10
F3.4601999999999999
ssI61
(dp70
g4
F1.6701999999999999
sg5
F2.6589
sg6
F1.9996
sg7
F2.3889999999999998
sg8
F2.9127000000000001
sg9
F3.2292999999999998
sg10
F3.4573
ssI62
(dp71
g4
F1.6698
sg5
F2.6575000000000002
sg6
F1.9990000000000001
sg7
F2.3879999999999999
sg8
F2.911
sg9
F3.2269000000000001
sg10
F3.4544999999999999
ssI63
(dp72
g4
F1.6694
sg5
F2.6560999999999999
sg6
F1.9983
sg7
F2.387
sg8
F2.9091999999999998
sg9
F3.2246999999999999
sg10
F3.4518
ssI64
(dp73
g4
F1.669
sg5
F2.6549
sg6
F1.9977
sg7
F2.3860000000000001
sg8
F2.9076
sg9
F3.2225000000000001
sg10
F3.4491000000000001
ssI65
(dp74
g4
F1.6686000000000001
sg5
F2.6536
sg6
F1.9971000000000001
sg7
F2.3851
sg8
F2.9060000000000001
sg9
F3.2204000000000002
sg10
F3.4466000000000001
ssI66
(dp75
g4
F1.6682999999999999
sg5
F2.6524000000000001
sg6
F1.9965999999999999
sg7
F2.3841999999999999
sg8
F2.9045000000000001
sg9
F3.2183999999999999
sg10
F3.4441000000000002
ssI67
(dp76
g4
F1.6678999999999999
sg5
F2.6511999999999998
sg6
F1.996
sg7
F2.3833000000000002
sg8
F2.903
sg9
F3.2164000000000001
sg10
F3.4417
ssI68
(dp77
g4
F1.6676
sg5
F2.6501000000000001
sg6
F1.9955000000000001
sg7
F2.3824000000000001
sg8
F2.9015
sg9
F3.2143999999999999
sg10
F3.4394999999999998
ssI69
(dp78
g4
F1.6673
sg5
F2.649
sg6
F1.9950000000000001
sg7
F2.3816000000000002
sg8
F2.9001000000000001
sg9
F3.2126000000000001
sg10
F3.4371999999999998
ssI70
(dp79
g4
F1.6669
sg5
F2.6478999999999999
sg6
F1.9944
sg7
F2.3807999999999998
sg8
F2.8986999999999998
sg9
F3.2107999999999999
sg10
F3.4350000000000001
ssI71
(dp80
g4
F1.6666000000000001
sg5
F2.6467999999999998
sg6
F1.9939
sg7
F2.3799999999999999
sg8
F2.8974000000000002
sg9
F3.2090000000000001
sg10
F3.4329000000000001
ssI72
(dp81
g4
F1.6662999999999999
sg5
F2.6459000000000001
sg6
F1.9935
sg7
F2.3793000000000002
sg8
F2.8961000000000001
sg9
F3.2073
sg10
F3.4308000000000001
ssI73
(dp82
g4
F1.6659999999999999
sg5
F2.6448999999999998
sg6
F1.9930000000000001
sg7
F2.3784999999999998
sg8
F2.8948
sg9
F3.2056
sg10
F3.4287999999999998
ssI74
(dp83
g4
F1.6657
sg5
F2.6438999999999999
sg6
F1.9924999999999999
sg7
F2.3778000000000001
sg8
F2.8936000000000002
sg9
F3.2040000000000002
sg10
F3.4268999999999998
ssI75
(dp84
g4
F1.6654
sg5
F2.6429999999999998
sg6
F1.9921
sg7
F2.3771
sg8
F2.8925000000000001
sg9
F3.2025000000000001
sg10
F3.4249999999999998
ssI76
(dp85
g4
F1.6652
sg5
F2.6421000000000001
sg6
F1.9917
sg7
F2.3763999999999998
sg8
F2.8913000000000002
sg9
F3.2010000000000001
sg10
F3.4232
ssI77
(dp86
g4
F1.6649
sg5
F2.6412
sg6
F1.9913000000000001
sg7
F2.3757999999999999
sg8
F2.8902000000000001
sg9
F3.1995
sg10
F3.4214000000000002
ssI78
(dp87
g4
F1.6646000000000001
sg5
F2.6404000000000001
sg6
F1.9908999999999999
sg7
F2.3751000000000002
sg8
F2.8891
sg9
F3.198
sg10
F3.4197000000000002
ssI79
(dp88
g4
F1.6644000000000001
sg5
F2.6395
sg6
F1.9903999999999999
sg7
F2.3744999999999998
sg8
F2.8879999999999999
sg9
F3.1966000000000001
sg10
F3.4180000000000001
ssI80
(dp89
g4
F1.6640999999999999
sg5
F2.6387
sg6
F1.9901
sg7
F2.3738999999999999
sg8
F2.887
sg9
F3.1953
sg10
F3.4163999999999999
ssI81
(dp90
g4
F1.6638999999999999
sg5
F2.6379000000000001
sg6
F1.9897
sg7
F2.3733
sg8
F2.8858999999999999
sg9
F3.1939000000000002
sg10
F3.4146999999999998
ssI82
(dp91
g4
F1.6636
sg5
F2.6371000000000002
sg6
F1.9893000000000001
sg7
F2.3727
sg8
F2.8849999999999998
sg9
F3.1926000000000001
sg10
F3.4131999999999998
ssI83
(dp92
g4
F1.6634
sg5
F2.6364000000000001
sg6
F1.9888999999999999
sg7
F2.3721000000000001
sg8
F2.8839999999999999
sg9
F3.1913
sg10
F3.4117000000000002
ssI84
(dp93
g4
F1.6632
sg5
F2.6356000000000002
sg6
F1.9885999999999999
sg7
F2.3715999999999999
sg8
F2.8831000000000002
sg9
F3.1901000000000002
sg10
F3.4100999999999999
ssI85
(dp94
g4
F1.663
sg5
F2.6349
sg6
F1.9883
sg7
F2.371
sg8
F2.8820999999999999
sg9
F3.1888999999999998
sg10
F3.4087000000000001
ssI86
(dp95
g4
F1.6628000000000001
sg5
F2.6341999999999999
sg6
F1.9879
sg7
F2.3704999999999998
sg8
F2.8813
sg9
F3.1877
sg10
F3.4073000000000002
ssI87
(dp96
g4
F1.6626000000000001
sg5
F2.6335000000000002
sg6
F1.9876
sg7
F2.3700000000000001
sg8
F2.8803999999999998
sg9
F3.1865999999999999
sg10
F3.4058999999999999
ssI88
(dp97
g4
F1.6623000000000001
sg5
F2.6328
sg6
F1.9873000000000001
sg7
F2.3694999999999999
sg8
F2.8795000000000002
sg9
F3.1854
sg10
F3.4045999999999998
ssI89
(dp98
g4
F1.6621999999999999
sg5
F2.6322000000000001
sg6
F1.9870000000000001
sg7
F2.3690000000000002
sg8
F2.8786999999999998
sg9
F3.1844000000000001
sg10
F3.4032
ssI90
(dp99
g4
F1.6619999999999999
sg5
F2.6316000000000002
sg6
F1.9866999999999999
sg7
F2.3685
sg8
F2.8778999999999999
sg9
F3.1833
sg10
F3.4020000000000001
ssI91
(dp100
g4
F1.6617999999999999
sg5
F2.6309
sg6
F1.9863999999999999
sg7
F2.3679999999999999
sg8
F2.8771
sg9
F3.1821999999999999
sg10
F3.4005999999999998
ssI92
(dp101
g4
F1.6616
sg5
F2.6303000000000001
sg6
F1.9861
sg7
F2.3675999999999999
sg8
F2.8763000000000001
sg9
F3.1812
sg10
F3.3995000000000002
ssI93
(dp102
g4
F1.6614
sg5
F2.6297000000000001
sg6
F1.9858
sg7
F2.3671000000000002
sg8
F2.8755000000000002
sg9
F3.1802000000000001
sg10
F3.3982000000000001
ssI94
(dp103
g4
F1.6612
sg5
F2.6292
sg6
F1.9855
sg7
F2.3666999999999998
sg8
F2.8748
sg9
F3.1791999999999998
sg10
F3.3969999999999998
ssI95
(dp104
g4
F1.661
sg5
F2.6286
sg6
F1.9852000000000001
sg7
F2.3662000000000001
sg8
F2.8740999999999999
sg9
F3.1781999999999999
sg10
F3.3959000000000001
ssI96
(dp105
g4
F1.6609
sg5
F2.6280000000000001
sg6
F1.9850000000000001
sg7
F2.3658000000000001
sg8
F2.8734000000000002
sg9
F3.1772999999999998
sg10
F3.3946999999999998
ssI97
(dp106
g4
F1.6607000000000001
sg5
F2.6274999999999999
sg6
F1.9846999999999999
sg7
F2.3654000000000002
sg8
F2.8727
sg9
F3.1764000000000001
sg10
F3.3936000000000002
ssI98
(dp107
g4
F1.6606000000000001
sg5
F2.6269
sg6
F1.9844999999999999
sg7
F2.3650000000000002
sg8
F2.8719999999999999
sg9
F3.1755
sg10
F3.3925999999999998
ssI99
(dp108
g4
F1.6604000000000001
sg5
F2.6263999999999998
sg6
F1.9842
sg7
F2.3645999999999998
sg8
F2.8713000000000002
sg9
F3.1745999999999999
sg10
F3.3915000000000002
ssI100
(dp109
g4
F1.6601999999999999
sg5
F2.6259000000000001
sg6
F1.984
sg7
F2.3641999999999999
sg8
F2.8706
sg9
F3.1738
sg10
F3.3904999999999998
ssI101
(dp110
g4
F1.6600999999999999
sg5
F2.6254
sg6
F1.9837
sg7
F2.3637999999999999
sg8
F2.8700000000000001
sg9
F3.1728999999999998
sg10
F3.3894000000000002
ssI102
(dp111
g4
F1.6598999999999999
sg5
F2.6248999999999998
sg6
F1.9835
sg7
F2.3635000000000002
sg8
F2.8694000000000002
sg9
F3.1720000000000002
sg10
F3.3885000000000001
ssI103
(dp112
g4
F1.6597999999999999
sg5
F2.6244000000000001
sg6
F1.9833000000000001
sg7
F2.3631000000000002
sg8
F2.8687
sg9
F3.1711999999999998
sg10
F3.3875000000000002
ssI104
(dp113
g4
F1.6596
sg5
F2.6240000000000001
sg6
F1.9830000000000001
sg7
F2.3626999999999998
sg8
F2.8681999999999999
sg9
F3.1703999999999999
sg10
F3.3866000000000001
ssI105
(dp114
g4
F1.6595
sg5
F2.6234999999999999
sg6
F1.9827999999999999
sg7
F2.3624000000000001
sg8
F2.8675000000000002
sg9
F3.1697000000000002
sg10
F3.3856000000000002
ssI106
(dp115
g4
F1.6593
sg5
F2.6230000000000002
sg6
F1.9825999999999999
sg7
F2.3620000000000001
sg8
F2.867
sg9
F3.1688999999999998
sg10
F3.3847
ssI107
(dp116
g4
F1.6592
sg5
F2.6225000000000001
sg6
F1.9823999999999999
sg7
F2.3616999999999999
sg8
F2.8664000000000001
sg9
F3.1680999999999999
sg10
F3.3837999999999999
ssI108
(dp117
g4
F1.6591
sg5
F2.6221000000000001
sg6
F1.9822
sg7
F2.3614000000000002
sg8
F2.8658000000000001
sg9
F3.1674000000000002
sg10
F3.3828999999999998
ssI109
(dp118
g4
F1.6589
sg5
F2.6217000000000001
sg6
F1.982
sg7
F2.3611
sg8
F2.8653
sg9
F3.1667000000000001
sg10
F3.3820000000000001
ssI110
(dp119
g4
F1.6588000000000001
sg5
F2.6212
sg6
F1.9818
sg7
F2.3607
sg8
F2.8647
sg9
F3.1659999999999999
sg10
F3.3812000000000002
ssI111
(dp120
g4
F1.6587000000000001
sg5
F2.6208
sg6
F1.9816
sg7
F2.3603999999999998
sg8
F2.8641999999999999
sg9
F3.1652999999999998
sg10
F3.3803000000000001
ssI112
(dp121
g4
F1.6586000000000001
sg5
F2.6204000000000001
sg6
F1.9814000000000001
sg7
F2.3601000000000001
sg8
F2.8637000000000001
sg9
F3.1646000000000001
sg10
F3.3795000000000002
ssI113
(dp122
g4
F1.6585000000000001
sg5
F2.6200000000000001
sg6
F1.9812000000000001
sg7
F2.3597999999999999
sg8
F2.8632
sg9
F3.1640000000000001
sg10
F3.3786999999999998
ssI114
(dp123
g4
F1.6583000000000001
sg5
F2.6196000000000002
sg6
F1.9810000000000001
sg7
F2.3595000000000002
sg8
F2.8626999999999998
sg9
F3.1633
sg10
F3.3778999999999999
ssI115
(dp124
g4
F1.6581999999999999
sg5
F2.6192000000000002
sg6
F1.9807999999999999
sg7
F2.3592
sg8
F2.8622000000000001
sg9
F3.1625999999999999
sg10
F3.3771
ssI116
(dp125
g4
F1.6580999999999999
sg5
F2.6189
sg6
F1.9805999999999999
sg7
F2.3589000000000002
sg8
F2.8616999999999999
sg9
F3.1619999999999999
sg10
F3.3763999999999998
ssI117
(dp126
g4
F1.6579999999999999
sg5
F2.6185
sg6
F1.9804999999999999
sg7
F2.3586
sg8
F2.8612000000000002
sg9
F3.1614
sg10
F3.3755999999999999
ssI118
(dp127
g4
F1.6578999999999999
sg5
F2.6181000000000001
sg6
F1.9802999999999999
sg7
F2.3582999999999998
sg8
F2.8607999999999998
sg9
F3.1606999999999998
sg10
F3.3748999999999998
ssI119
(dp128
g4
F1.6577999999999999
sg5
F2.6177999999999999
sg6
F1.9801
sg7
F2.3580999999999999
sg8
F2.8603000000000001
sg9
F3.1600999999999999
sg10
F3.3740999999999999
ssI120
(dp129
g4
F1.6577
sg5
F2.6173999999999999
sg6
F1.9799
sg7
F2.3578000000000001
sg8
F2.8599000000000001
sg9
F3.1595
sg10
F3.3734999999999999
ssI121
(dp130
g4
F1.6575
sg5
F2.6171000000000002
sg6
F1.9798
sg7
F2.3576000000000001
sg8
F2.8593999999999999
sg9
F3.1589
sg10
F3.3727
ssI122
(dp131
g4
F1.6574
sg5
F2.6168
sg6
F1.9796
sg7
F2.3573
sg8
F2.859
sg9
F3.1583999999999999
sg10
F3.3721000000000001
ssI123
(dp132
g4
F1.6573
sg5
F2.6164000000000001
sg6
F1.9794
sg7
F2.3571
sg8
F2.8584999999999998
sg9
F3.1577999999999999
sg10
F3.3714
ssI124
(dp133
g4
F1.6572
sg5
F2.6160999999999999
sg6
F1.9793000000000001
sg7
F2.3567999999999998
sg8
F2.8582000000000001
sg9
F3.1573000000000002
sg10
F3.3706999999999998
ssI125
(dp134
g4
F1.6571
sg5
F2.6158000000000001
sg6
F1.9791000000000001
sg7
F2.3565
sg8
F2.8576999999999999
sg9
F3.1566999999999998
sg10
F3.3700000000000001
ssI126
(dp135
g4
F1.657
sg5
F2.6154000000000002
sg6
F1.9790000000000001
sg7
F2.3563000000000001
sg8
F2.8573
sg9
F3.1562000000000001
sg10
F3.3694000000000002
ssI127
(dp136
g4
F1.657
sg5
F2.6151
sg6
F1.9787999999999999
sg7
F2.3561000000000001
sg8
F2.8569
sg9
F3.1556000000000002
sg10
F3.3687999999999998
ssI128
(dp137
g4
F1.6568000000000001
sg5
F2.6147999999999998
sg6
F1.9786999999999999
sg7
F2.3559000000000001
sg8
F2.8565
sg9
F3.1551
sg10
F3.3681999999999999
ssI129
(dp138
g4
F1.6568000000000001
sg5
F2.6145
sg6
F1.9784999999999999
sg7
F2.3555999999999999
sg8
F2.8561000000000001
sg9
F3.1545999999999998
sg10
F3.3675999999999999
ssI130
(dp139
g4
F1.6567000000000001
sg5
F2.6141999999999999
sg6
F1.9783999999999999
sg7
F2.3553999999999999
sg8
F2.8557000000000001
sg9
F3.1541000000000001
sg10
F3.3668999999999998
ssI131
(dp140
g4
F1.6566000000000001
sg5
F2.6139000000000001
sg6
F1.9782
sg7
F2.3552
sg8
F2.8553999999999999
sg9
F3.1536
sg10
F3.3662999999999998
ssI132
(dp141
g4
F1.6565000000000001
sg5
F2.6135999999999999
sg6
F1.9781
sg7
F2.3549000000000002
sg8
F2.855
sg9
F3.1530999999999998
sg10
F3.3658000000000001
ssI133
(dp142
g4
F1.6564000000000001
sg5
F2.6133000000000002
sg6
F1.9779
sg7
F2.3546999999999998
sg8
F2.8546
sg9
F3.1526000000000001
sg10
F3.3652000000000002
ssI134
(dp143
g4
F1.6563000000000001
sg5
F2.613
sg6
F1.9778
sg7
F2.3544999999999998
sg8
F2.8542000000000001
sg9
F3.1522000000000001
sg10
F3.3645999999999998
ssI135
(dp144
g4
F1.6561999999999999
sg5
F2.6126999999999998
sg6
F1.9777
sg7
F2.3542999999999998
sg8
F2.8538999999999999
sg9
F3.1516999999999999
sg10
F3.3641000000000001
ssI136
(dp145
g4
F1.6560999999999999
sg5
F2.6124999999999998
sg6
F1.9776
sg7
F2.3540999999999999
sg8
F2.8536000000000001
sg9
F3.1511999999999998
sg10
F3.3635000000000002
ssI137
(dp146
g4
F1.6560999999999999
sg5
F2.6122000000000001
sg6
F1.9774
sg7
F2.3538999999999999
sg8
F2.8532000000000002
sg9
F3.1507999999999998
sg10
F3.363
ssI138
(dp147
g4
F1.6559999999999999
sg5
F2.6118999999999999
sg6
F1.9773000000000001
sg7
F2.3536999999999999
sg8
F2.8529
sg9
F3.1503000000000001
sg10
F3.3624000000000001
ssI139
(dp148
g4
F1.6558999999999999
sg5
F2.6116999999999999
sg6
F1.9772000000000001
sg7
F2.3534999999999999
sg8
F2.8525
sg9
F3.1499000000000001
sg10
F3.3618999999999999
ssI140
(dp149
g4
F1.6557999999999999
sg5
F2.6114000000000002
sg6
F1.9771000000000001
sg7
F2.3532999999999999
sg8
F2.8521999999999998
sg9
F3.1495000000000002
sg10
F3.3614000000000002
ssI141
(dp150
g4
F1.6556999999999999
sg5
F2.6112000000000002
sg6
F1.9769000000000001
sg7
F2.3531
sg8
F2.8519000000000001
sg9
F3.1490999999999998
sg10
F3.3609
ssI142
(dp151
g4
F1.6556999999999999
sg5
F2.6109
sg6
F1.9767999999999999
sg7
F2.3529
sg8
F2.8515999999999999
sg9
F3.1486000000000001
sg10
F3.3603999999999998
ssI143
(dp152
g4
F1.6556
sg5
F2.6105999999999998
sg6
F1.9766999999999999
sg7
F2.3527
sg8
F2.8512
sg9
F3.1482000000000001
sg10
F3.3599000000000001
ssI144
(dp153
g4
F1.6555
sg5
F2.6103999999999998
sg6
F1.9765999999999999
sg7
F2.3525
sg8
F2.851
sg9
F3.1478000000000002
sg10
F3.3593999999999999
ssI145
(dp154
g4
F1.6554
sg5
F2.6101999999999999
sg6
F1.9764999999999999
sg7
F2.3523000000000001
sg8
F2.8506
sg9
F3.1474000000000002
sg10
F3.3589000000000002
ssI146
(dp155
g4
F1.6554
sg5
F2.6099000000000001
sg6
F1.9763999999999999
sg7
F2.3521999999999998
sg8
F2.8502999999999998
sg9
F3.1469999999999998
sg10
F3.3584000000000001
ssI147
(dp156
g4
F1.6553
sg5
F2.6097000000000001
sg6
F1.9762
sg7
F2.3519999999999999
sg8
F2.8500000000000001
sg9
F3.1465999999999998
sg10
F3.3578999999999999
ssI148
(dp157
g4
F1.6552
sg5
F2.6093999999999999
sg6
F1.9761
sg7
F2.3517999999999999
sg8
F2.8496999999999999
sg9
F3.1461999999999999
sg10
F3.3574999999999999
ssI149
(dp158
g4
F1.6551
sg5
F2.6092
sg6
F1.976
sg7
F2.3515999999999999
sg8
F2.8494000000000002
sg9
F3.1457999999999999
sg10
F3.3570000000000002
ssI150
(dp159
g4
F1.6551
sg5
F2.609
sg6
F1.9759
sg7
F2.3515000000000001
sg8
F2.8491
sg9
F3.1455000000000002
sg10
F3.3565
ssI151
(dp160
g4
F1.655
sg5
F2.6088
sg6
F1.9758
sg7
F2.3513000000000002
sg8
F2.8489
sg9
F3.1450999999999998
sg10
F3.3561000000000001
ssI152
(dp161
g4
F1.6549
sg5
F2.6084999999999998
sg6
F1.9757
sg7
F2.3511000000000002
sg8
F2.8485999999999998
sg9
F3.1446999999999998
sg10
F3.3557000000000001
ssI153
(dp162
g4
F1.6549
sg5
F2.6082999999999998
sg6
F1.9756
sg7
F2.351
sg8
F2.8483000000000001
sg9
F3.1442999999999999
sg10
F3.3552
ssI154
(dp163
g4
F1.6548
sg5
F2.6080999999999999
sg6
F1.9755
sg7
F2.3508
sg8
F2.8481000000000001
sg9
F3.1440000000000001
sg10
F3.3548
ssI155
(dp164
g4
F1.6547000000000001
sg5
F2.6078999999999999
sg6
F1.9754
sg7
F2.3506999999999998
sg8
F2.8477999999999999
sg9
F3.1436000000000002
sg10
F3.3544
ssI156
(dp165
g4
F1.6547000000000001
sg5
F2.6076999999999999
sg6
F1.9753000000000001
sg7
F2.3504999999999998
sg8
F2.8475000000000001
sg9
F3.1433
sg10
F3.3540000000000001
ssI157
(dp166
g4
F1.6546000000000001
sg5
F2.6074999999999999
sg6
F1.9752000000000001
sg7
F2.3502999999999998
sg8
F2.8472
sg9
F3.1429999999999998
sg10
F3.3536000000000001
ssI158
(dp167
g4
F1.6546000000000001
sg5
F2.6073
sg6
F1.9751000000000001
sg7
F2.3502000000000001
sg8
F2.847
sg9
F3.1425999999999998
sg10
F3.3531
ssI159
(dp168
g4
F1.6545000000000001
sg5
F2.6071
sg6
F1.9750000000000001
sg7
F2.3500000000000001
sg8
F2.8466999999999998
sg9
F3.1423000000000001
sg10
F3.3527999999999998
ssI160
(dp169
g4
F1.6544000000000001
sg5
F2.6069
sg6
F1.9749000000000001
sg7
F2.3498999999999999
sg8
F2.8464999999999998
sg9
F3.1419000000000001
sg10
F3.3523000000000001
ssI161
(dp170
g4
F1.6544000000000001
sg5
F2.6067
sg6
F1.9748000000000001
sg7
F2.3496999999999999
sg8
F2.8462999999999998
sg9
F3.1417000000000002
sg10
F3.3519999999999999
ssI162
(dp171
g4
F1.6543000000000001
sg5
F2.6065
sg6
F1.9746999999999999
sg7
F2.3496000000000001
sg8
F2.8460000000000001
sg9
F3.1413000000000002
sg10
F3.3515999999999999
ssI163
(dp172
g4
F1.6543000000000001
sg5
F2.6063000000000001
sg6
F1.9745999999999999
sg7
F2.3494999999999999
sg8
F2.8458000000000001
sg9
F3.141
sg10
F3.3512
ssI164
(dp173
g4
F1.6541999999999999
sg5
F2.6061999999999999
sg6
F1.9744999999999999
sg7
F2.3492999999999999
sg8
F2.8454999999999999
sg9
F3.1406999999999998
sg10
F3.3508
ssI165
(dp174
g4
F1.6541999999999999
sg5
F2.6059999999999999
sg6
F1.9743999999999999
sg7
F2.3492000000000002
sg8
F2.8452000000000002
sg9
F3.1402999999999999
sg10
F3.3504999999999998
ssI166
(dp175
g4
F1.6540999999999999
sg5
F2.6057999999999999
sg6
F1.9743999999999999
sg7
F2.3490000000000002
sg8
F2.8450000000000002
sg9
F3.1400000000000001
sg10
F3.3500999999999999
ssI167
(dp176
g4
F1.6539999999999999
sg5
F2.6055999999999999
sg6
F1.9742999999999999
sg7
F2.3489
sg8
F2.8448000000000002
sg9
F3.1398000000000001
sg10
F3.3496999999999999
ssI168
(dp177
g4
F1.6539999999999999
sg5
F2.6053999999999999
sg6
F1.9742
sg7
F2.3487
sg8
F2.8445999999999998
sg9
F3.1394000000000002
sg10
F3.3494000000000002
ssI169
(dp178
g4
F1.6538999999999999
sg5
F2.6052
sg6
F1.9741
sg7
F2.3485999999999998
sg8
F2.8443000000000001
sg9
F3.1392000000000002
sg10
F3.3490000000000002
ssI170
(dp179
g4
F1.6538999999999999
sg5
F2.6051000000000002
sg6
F1.974
sg7
F2.3485
sg8
F2.8441000000000001
sg9
F3.1387999999999998
sg10
F3.3487
ssI171
(dp180
g4
F1.6537999999999999
sg5
F2.6049000000000002
sg6
F1.9739
sg7
F2.3483999999999998
sg8
F2.8439000000000001
sg9
F3.1385999999999998
sg10
F3.3483000000000001
ssI172
(dp181
g4
F1.6536999999999999
sg5
F2.6046999999999998
sg6
F1.9739
sg7
F2.3481999999999998
sg8
F2.8437000000000001
sg9
F3.1383000000000001
sg10
F3.3479999999999999
ssI173
(dp182
g4
F1.6536999999999999
sg5
F2.6046
sg6
F1.9738
sg7
F2.3481000000000001
sg8
F2.8435000000000001
sg9
F3.1379999999999999
sg10
F3.3477000000000001
ssI174
(dp183
g4
F1.6536999999999999
sg5
F2.6044
sg6
F1.9737
sg7
F2.3479999999999999
sg8
F2.8433000000000002
sg9
F3.1377000000000002
sg10
F3.3473000000000002
ssI175
(dp184
g4
F1.6536
sg5
F2.6042000000000001
sg6
F1.9736
sg7
F2.3477999999999999
sg8
F2.843
sg9
F3.1375000000000002
sg10
F3.347
ssI176
(dp185
g4
F1.6536
sg5
F2.6040999999999999
sg6
F1.9735
sg7
F2.3477000000000001
sg8
F2.8429000000000002
sg9
F3.1372
sg10
F3.3466
ssI177
(dp186
g4
F1.6535
sg5
F2.6038999999999999
sg6
F1.9735
sg7
F2.3475999999999999
sg8
F2.8426999999999998
sg9
F3.1368999999999998
sg10
F3.3464
ssI178
(dp187
g4
F1.6535
sg5
F2.6036999999999999
sg6
F1.9734
sg7
F2.3475000000000001
sg8
F2.8424
sg9
F3.1366000000000001
sg10
F3.3460000000000001
ssI179
(dp188
g4
F1.6534
sg5
F2.6036000000000001
sg6
F1.9733000000000001
sg7
F2.3473999999999999
sg8
F2.8422999999999998
sg9
F3.1364000000000001
sg10
F3.3456999999999999
ssI180
(dp189
g4
F1.6534
sg5
F2.6034000000000002
sg6
F1.9732000000000001
sg7
F2.3472
sg8
F2.8420000000000001
sg9
F3.1360999999999999
sg10
F3.3454000000000002
ssI181
(dp190
g4
F1.6533
sg5
F2.6032999999999999
sg6
F1.9731000000000001
sg7
F2.3471000000000002
sg8
F2.8418999999999999
sg9
F3.1358000000000001
sg10
F3.3451
ssI182
(dp191
g4
F1.6533
sg5
F2.6031
sg6
F1.9731000000000001
sg7
F2.347
sg8
F2.8416000000000001
sg9
F3.1356000000000002
sg10
F3.3448000000000002
ssI183
(dp192
g4
F1.6532
sg5
F2.6030000000000002
sg6
F1.9730000000000001
sg7
F2.3469000000000002
sg8
F2.8414999999999999
sg9
F3.1354000000000002
sg10
F3.3445
ssI184
(dp193
g4
F1.6532
sg5
F2.6027999999999998
sg6
F1.9729000000000001
sg7
F2.3468
sg8
F2.8412999999999999
sg9
F3.1351
sg10
F3.3441999999999998
ssI185
(dp194
g4
F1.6531
sg5
F2.6027
sg6
F1.9729000000000001
sg7
F2.3466999999999998
sg8
F2.8411
sg9
F3.1349
sg10
F3.3439000000000001
ssI186
(dp195
g4
F1.6531
sg5
F2.6025
sg6
F1.9728000000000001
sg7
F2.3466
sg8
F2.8409
sg9
F3.1345999999999998
sg10
F3.3435999999999999
ssI187
(dp196
g4
F1.6531
sg5
F2.6023999999999998
sg6
F1.9726999999999999
sg7
F2.3464999999999998
sg8
F2.8407
sg9
F3.1343999999999999
sg10
F3.3433000000000002
ssI188
(dp197
g4
F1.653
sg5
F2.6021999999999998
sg6
F1.9726999999999999
sg7
F2.3462999999999998
sg8
F2.8405999999999998
sg9
F3.1341000000000001
sg10
F3.343
ssI189
(dp198
g4
F1.6529
sg5
F2.6021000000000001
sg6
F1.9725999999999999
sg7
F2.3462999999999998
sg8
F2.8403
sg9
F3.1339000000000001
sg10
F3.3428
ssI190
(dp199
g4
F1.6529
sg5
F2.6019000000000001
sg6
F1.9724999999999999
sg7
F2.3460999999999999
sg8
F2.8401999999999998
sg9
F3.1337000000000002
sg10
F3.3424999999999998
ssI191
(dp200
g4
F1.6529
sg5
F2.6017999999999999
sg6
F1.9724999999999999
sg7
F2.3460000000000001
sg8
F2.8399999999999999
sg9
F3.1334
sg10
F3.3422000000000001
ssI192
(dp201
g4
F1.6528
sg5
F2.6017000000000001
sg6
F1.9723999999999999
sg7
F2.3458999999999999
sg8
F2.8397999999999999
sg9
F3.1332
sg10
F3.3418999999999999
ssI193
(dp202
g4
F1.6528
sg5
F2.6015000000000001
sg6
F1.9722999999999999
sg7
F2.3458000000000001
sg8
F2.8397000000000001
sg9
F3.133
sg10
F3.3416999999999999
ssI194
(dp203
g4
F1.6528
sg5
F2.6013999999999999
sg6
F1.9722999999999999
sg7
F2.3456999999999999
sg8
F2.8395000000000001
sg9
F3.1328
sg10
F3.3414000000000001
ssI195
(dp204
g4
F1.6527000000000001
sg5
F2.6013000000000002
sg6
F1.9722
sg7
F2.3456000000000001
sg8
F2.8393000000000002
sg9
F3.1326000000000001
sg10
F3.3411
ssI196
(dp205
g4
F1.6527000000000001
sg5
F2.6012
sg6
F1.9721
sg7
F2.3454999999999999
sg8
F2.8391999999999999
sg9
F3.1322999999999999
sg10
F3.3409
ssI197
(dp206
g4
F1.6526000000000001
sg5
F2.601
sg6
F1.9721
sg7
F2.3454000000000002
sg8
F2.839
sg9
F3.1320999999999999
sg10
F3.3405999999999998
ssI198
(dp207
g4
F1.6526000000000001
sg5
F2.6009000000000002
sg6
F1.972
sg7
F2.3452999999999999
sg8
F2.8388
sg9
F3.1318999999999999
sg10
F3.3403
ssI199
(dp208
g4
F1.6525000000000001
sg5
F2.6008
sg6
F1.972
sg7
F2.3452000000000002
sg8
F2.8386999999999998
sg9
F3.1316999999999999
sg10
F3.3401000000000001
ssI200
(dp209
g4
F1.6525000000000001
sg5
F2.6006999999999998
sg6
F1.9719
sg7
F2.3451
sg8
F2.8384999999999998
sg9
F3.1315
sg10
F3.3397999999999999
sssS'ONETAIL'
p210
(dp211
I1
(dp212
g5
F31.819299999999998
sg6
F6.3137999999999996
sS'0.025'
p213
F12.7065
sg8
F63.655099999999997
sS'0.0025'
p214
F127.3447
sS'0.0005'
p215
F636.04499999999996
sg10
F318.49299999999999
ssI2
(dp216
g5
F6.9645999999999999
sg6
F2.9199999999999999
sg213
F4.3026
sg8
F9.9246999999999996
sg214
F14.088699999999999
sg215
F31.5989
sg10
F22.3276
ssI3
(dp217
g5
F4.5407000000000002
sg6
F2.3534000000000002
sg213
F3.1823999999999999
sg8
F5.8407999999999998
sg214
F7.4534000000000002
sg215
F12.924200000000001
sg10
F10.214499999999999
ssI4
(dp218
g5
F3.7469999999999999
sg6
F2.1318999999999999
sg213
F2.7764000000000002
sg8
F4.6040999999999999
sg214
F5.5975999999999999
sg215
F8.6103000000000005
sg10
F7.1731999999999996
ssI5
(dp219
g5
F3.3650000000000002
sg6
F2.0150000000000001
sg213
F2.5706000000000002
sg8
F4.0321999999999996
sg214
F4.7733999999999996
sg215
F6.8688000000000002
sg10
F5.8933999999999997
ssI6
(dp220
g5
F3.1425999999999998
sg6
F1.9432
sg213
F2.4468999999999999
sg8
F3.7073999999999998
sg214
F4.3167999999999997
sg215
F5.9588999999999999
sg10
F5.2076000000000002
ssI7
(dp221
g5
F2.9980000000000002
sg6
F1.8946000000000001
sg213
F2.3645999999999998
sg8
F3.4994999999999998
sg214
F4.0293999999999999
sg215
F5.4078999999999997
sg10
F4.7851999999999997
ssI8
(dp222
g5
F2.8965000000000001
sg6
F1.8594999999999999
sg213
F2.306
sg8
F3.3553999999999999
sg214
F3.8325
sg215
F5.0414000000000003
sg10
F4.5007999999999999
ssI9
(dp223
g5
F2.8214000000000001
sg6
F1.8331
sg213
F2.2621000000000002
sg8
F3.2498
sg214
F3.6896
sg215
F4.7808999999999999
sg10
F4.2968999999999999
ssI10
(dp224
g5
F2.7637999999999998
sg6
F1.8124
sg213
F2.2282000000000002
sg8
F3.1692999999999998
sg214
F3.5813999999999999
sg215
F4.5869
sg10
F4.1436999999999999
ssI11
(dp225
g5
F2.7181000000000002
sg6
F1.7959000000000001
sg213
F2.2010000000000001
sg8
F3.1057999999999999
sg214
F3.4965999999999999
sg215
F4.4368999999999996
sg10
F4.0247000000000002
ssI12
(dp226
g5
F2.681
sg6
F1.7823
sg213
F2.1787999999999998
sg8
F3.0545
sg214
F3.4283999999999999
sg215
F4.3178000000000001
sg10
F3.9296000000000002
ssI13
(dp227
g5
F2.6503000000000001
sg6
F1.7708999999999999
sg213
F2.1604000000000001
sg8
F3.0123000000000002
sg214
F3.3725000000000001
sg215
F4.2207999999999997
sg10
F3.8519999999999999
ssI14
(dp228
g5
F2.6244999999999998
sg6
F1.7613000000000001
sg213
F2.1448
sg8
F2.9767999999999999
sg214
F3.3256999999999999
sg215
F4.1403999999999996
sg10
F3.7873999999999999
ssI15
(dp229
g5
F2.6025
sg6
F1.7529999999999999
sg213
F2.1314000000000002
sg8
F2.9466999999999999
sg214
F3.286
sg215
F4.0728
sg10
F3.7328000000000001
ssI16
(dp230
g5
F2.5834999999999999
sg6
F1.7459
sg213
F2.1198999999999999
sg8
F2.9207999999999998
sg214
F3.2519999999999998
sg215
F4.0149999999999997
sg10
F3.6861000000000002
ssI17
(dp231
g5
F2.5669
sg6
F1.7396
sg213
F2.1097999999999999
sg8
F2.8982999999999999
sg214
F3.2223999999999999
sg215
F3.9651000000000001
sg10
F3.6457999999999999
ssI18
(dp232
g5
F2.5524
sg6
F1.7341
sg213
F2.1009000000000002
sg8
F2.8784000000000001
sg214
F3.1966000000000001
sg215
F3.9216000000000002
sg10
F3.6105
ssI19
(dp233
g5
F2.5394999999999999
sg6
F1.7291000000000001
sg213
F2.093
sg8
F2.8609
sg214
F3.1737000000000002
sg215
F3.8834
sg10
F3.5794000000000001
ssI20
(dp234
g5
F2.528
sg6
F1.7246999999999999
sg213
F2.0859999999999999
sg8
F2.8454000000000002
sg214
F3.1534
sg215
F3.8494999999999999
sg10
F3.5518000000000001
ssI21
(dp235
g5
F2.5175999999999998
sg6
F1.7206999999999999
sg213
F2.0796000000000001
sg8
F2.8313999999999999
sg214
F3.1352000000000002
sg215
F3.8193000000000001
sg10
F3.5272000000000001
ssI22
(dp236
g5
F2.5083000000000002
sg6
F1.7172000000000001
sg213
F2.0739000000000001
sg8
F2.8188
sg214
F3.1187999999999998
sg215
F3.7921
sg10
F3.5049999999999999
ssI23
(dp237
g5
F2.4998
sg6
F1.7139
sg213
F2.0686
sg8
F2.8073000000000001
sg214
F3.1040000000000001
sg215
F3.7675999999999998
sg10
F3.4849999999999999
ssI24
(dp238
g5
F2.4922
sg6
F1.7109000000000001
sg213
F2.0638999999999998
sg8
F2.7970000000000002
sg214
F3.0905
sg215
F3.7454000000000001
sg10
F3.4668000000000001
ssI25
(dp239
g5
F2.4851000000000001
sg6
F1.7081
sg213
F2.0596000000000001
sg8
F2.7873999999999999
sg214
F3.0781999999999998
sg215
F3.7250999999999999
sg10
F3.4502000000000002
ssI26
(dp240
g5
F2.4786000000000001
sg6
F1.7056
sg213
F2.0554999999999999
sg8
F2.7787000000000002
sg214
F3.0669
sg215
F3.7067000000000001
sg10
F3.4350000000000001
ssI27
(dp241
g5
F2.4727000000000001
sg6
F1.7033
sg213
F2.0518000000000001
sg8
F2.7707000000000002
sg214
F3.0565000000000002
sg215
F3.6896
sg10
F3.4211
ssI28
(dp242
g5
F2.4670999999999998
sg6
F1.7011000000000001
sg213
F2.0484
sg8
F2.7633000000000001
sg214
F3.0468999999999999
sg215
F3.6739000000000002
sg10
F3.4081999999999999
ssI29
(dp243
g5
F2.4620000000000002
sg6
F1.6991000000000001
sg213
F2.0451999999999999
sg8
F2.7564000000000002
sg214
F3.0379999999999998
sg215
F3.6594000000000002
sg10
F3.3961999999999999
ssI30
(dp244
g5
F2.4571999999999998
sg6
F1.6973
sg213
F2.0423
sg8
F2.75
sg214
F3.0297999999999998
sg215
F3.6459000000000001
sg10
F3.3852000000000002
ssI31
(dp245
g5
F2.4527999999999999
sg6
F1.6955
sg213
F2.0394999999999999
sg8
F2.7440000000000002
sg214
F3.0221
sg215
F3.6334
sg10
F3.3748999999999998
ssI32
(dp246
g5
F2.4487000000000001
sg6
F1.6939
sg213
F2.0369000000000002
sg8
F2.7385000000000002
sg214
F3.0150000000000001
sg215
F3.6217999999999999
sg10
F3.3653
ssI33
(dp247
g5
F2.4447999999999999
sg6
F1.6923999999999999
sg213
F2.0345
sg8
F2.7332999999999998
sg214
F3.0082
sg215
F3.6109
sg10
F3.3563000000000001
ssI34
(dp248
g5
F2.4411
sg6
F1.6909000000000001
sg213
F2.0322
sg8
F2.7284000000000002
sg214
F3.0019
sg215
F3.6008
sg10
F3.3479000000000001
ssI35
(dp249
g5
F2.4377
sg6
F1.6896
sg213
F2.0301
sg8
F2.7238000000000002
sg214
F2.9961000000000002
sg215
F3.5912000000000002
sg10
F3.3399999999999999
ssI36
(dp250
g5
F2.4344999999999999
sg6
F1.6882999999999999
sg213
F2.0280999999999998
sg8
F2.7195
sg214
F2.9904999999999999
sg215
F3.5821999999999998
sg10
F3.3325999999999998
ssI37
(dp251
g5
F2.4315000000000002
sg6
F1.6871
sg213
F2.0261999999999998
sg8
F2.7153999999999998
sg214
F2.9853000000000001
sg215
F3.5737000000000001
sg10
F3.3256000000000001
ssI38
(dp252
g5
F2.4285999999999999
sg6
F1.6859
sg213
F2.0244
sg8
F2.7115
sg214
F2.9803000000000002
sg215
F3.5657000000000001
sg10
F3.319
ssI39
(dp253
g5
F2.4258000000000002
sg6
F1.6849000000000001
sg213
F2.0226999999999999
sg8
F2.7079
sg214
F2.9756
sg215
F3.5581
sg10
F3.3128000000000002
ssI40
(dp254
g5
F2.4232999999999998
sg6
F1.6839
sg213
F2.0211000000000001
sg8
F2.7044999999999999
sg214
F2.9712000000000001
sg215
F3.5510000000000002
sg10
F3.3069000000000002
ssI41
(dp255
g5
F2.4207999999999998
sg6
F1.6829000000000001
sg213
F2.0196000000000001
sg8
F2.7012
sg214
F2.9670000000000001
sg215
F3.5442
sg10
F3.3012999999999999
ssI42
(dp256
g5
F2.4184999999999999
sg6
F1.6819999999999999
sg213
F2.0181
sg8
F2.6981000000000002
sg214
F2.9630000000000001
sg215
F3.5377999999999998
sg10
F3.2959000000000001
ssI43
(dp257
g5
F2.4161999999999999
sg6
F1.6811
sg213
F2.0167000000000002
sg8
F2.6951000000000001
sg214
F2.9590999999999998
sg215
F3.5316000000000001
sg10
F3.2909000000000002
ssI44
(dp258
g5
F2.4142000000000001
sg6
F1.6801999999999999
sg213
F2.0154000000000001
sg8
F2.6922999999999999
sg214
F2.9554999999999998
sg215
F3.5257999999999998
sg10
F3.2860999999999998
ssI45
(dp259
g5
F2.4121000000000001
sg6
F1.6794
sg213
F2.0141
sg8
F2.6896
sg214
F2.9521000000000002
sg215
F3.5202
sg10
F3.2814999999999999
ssI46
(dp260
g5
F2.4102000000000001
sg6
F1.6787000000000001
sg213
F2.0129000000000001
sg8
F2.6869999999999998
sg214
F2.9487999999999999
sg215
F3.5148999999999999
sg10
F3.2770999999999999
ssI47
(dp261
g5
F2.4083000000000001
sg6
F1.6778999999999999
sg213
F2.0116999999999998
sg8
F2.6846000000000001
sg214
F2.9456000000000002
sg215
F3.5099
sg10
F3.2728999999999999
ssI48
(dp262
g5
F2.4066000000000001
sg6
F1.6772
sg213
F2.0106000000000002
sg8
F2.6821999999999999
sg214
F2.9426000000000001
sg215
F3.5051000000000001
sg10
F3.2688999999999999
ssI49
(dp263
g5
F2.4049
sg6
F1.6766000000000001
sg213
F2.0095999999999998
sg8
F2.6800000000000002
sg214
F2.9397000000000002
sg215
F3.5004
sg10
F3.2650999999999999
ssI50
(dp264
g5
F2.4033000000000002
sg6
F1.6758999999999999
sg213
F2.0085999999999999
sg8
F2.6778
sg214
F2.9369999999999998
sg215
F3.496
sg10
F3.2614000000000001
ssI51
(dp265
g5
F2.4016999999999999
sg6
F1.6753
sg213
F2.0076000000000001
sg8
F2.6757
sg214
F2.9342999999999999
sg215
F3.4916999999999998
sg10
F3.2578999999999998
ssI52
(dp266
g5
F2.4001999999999999
sg6
F1.6747000000000001
sg213
F2.0066000000000002
sg8
F2.6737000000000002
sg214
F2.9318
sg215
F3.4876999999999998
sg10
F3.2545000000000002
ssI53
(dp267
g5
F2.3988
sg6
F1.6740999999999999
sg213
F2.0057
sg8
F2.6718000000000002
sg214
F2.9293
sg215
F3.4838
sg10
F3.2513000000000001
ssI54
(dp268
g5
F2.3974000000000002
sg6
F1.6736
sg213
F2.0049000000000001
sg8
F2.6699999999999999
sg214
F2.927
sg215
F3.48
sg10
F3.2482000000000002
ssI55
(dp269
g5
F2.3961000000000001
sg6
F1.673
sg213
F2.0041000000000002
sg8
F2.6682000000000001
sg214
F2.9247000000000001
sg215
F3.4763999999999999
sg10
F3.2450999999999999
ssI56
(dp270
g5
F2.3948
sg6
F1.6725000000000001
sg213
F2.0032000000000001
sg8
F2.6665000000000001
sg214
F2.9224999999999999
sg215
F3.4729999999999999
sg10
F3.2423000000000002
ssI57
(dp271
g5
F2.3936000000000002
sg6
F1.6719999999999999
sg213
F2.0024999999999999
sg8
F2.6648999999999998
sg214
F2.9203999999999999
sg215
F3.4695999999999998
sg10
F3.2393999999999998
ssI58
(dp272
g5
F2.3923999999999999
sg6
F1.6715
sg213
F2.0017
sg8
F2.6633
sg214
F2.9184000000000001
sg215
F3.4662999999999999
sg10
F3.2368000000000001
ssI59
(dp273
g5
F2.3912
sg6
F1.6711
sg213
F2.0009999999999999
sg8
F2.6617999999999999
sg214
F2.9163999999999999
sg215
F3.4632000000000001
sg10
F3.2342
ssI60
(dp274
g5
F2.3900999999999999
sg6
F1.6706000000000001
sg213
F2.0003000000000002
sg8
F2.6602999999999999
sg214
F2.9146000000000001
sg215
F3.4601999999999999
sg10
F3.2317
ssI61
(dp275
g5
F2.3889999999999998
sg6
F1.6701999999999999
sg213
F1.9996
sg8
F2.6589
sg214
F2.9127000000000001
sg215
F3.4573
sg10
F3.2292999999999998
ssI62
(dp276
g5
F2.3879999999999999
sg6
F1.6698
sg213
F1.9990000000000001
sg8
F2.6575000000000002
sg214
F2.911
sg215
F3.4544999999999999
sg10
F3.2269000000000001
ssI63
(dp277
g5
F2.387
sg6
F1.6694
sg213
F1.9983
sg8
F2.6560999999999999
sg214
F2.9091999999999998
sg215
F3.4518
sg10
F3.2246999999999999
ssI64
(dp278
g5
F2.3860000000000001
sg6
F1.669
sg213
F1.9977
sg8
F2.6549
sg214
F2.9076
sg215
F3.4491000000000001
sg10
F3.2225000000000001
ssI65
(dp279
g5
F2.3851
sg6
F1.6686000000000001
sg213
F1.9971000000000001
sg8
F2.6536
sg214
F2.9060000000000001
sg215
F3.4466000000000001
sg10
F3.2204000000000002
ssI66
(dp280
g5
F2.3841999999999999
sg6
F1.6682999999999999
sg213
F1.9965999999999999
sg8
F2.6524000000000001
sg214
F2.9045000000000001
sg215
F3.4441000000000002
sg10
F3.2183999999999999
ssI67
(dp281
g5
F2.3833000000000002
sg6
F1.6678999999999999
sg213
F1.996
sg8
F2.6511999999999998
sg214
F2.903
sg215
F3.4417
sg10
F3.2164000000000001
ssI68
(dp282
g5
F2.3824000000000001
sg6
F1.6676
sg213
F1.9955000000000001
sg8
F2.6501000000000001
sg214
F2.9015
sg215
F3.4394999999999998
sg10
F3.2143999999999999
ssI69
(dp283
g5
F2.3816000000000002
sg6
F1.6673
sg213
F1.9950000000000001
sg8
F2.649
sg214
F2.9001000000000001
sg215
F3.4371999999999998
sg10
F3.2126000000000001
ssI70
(dp284
g5
F2.3807999999999998
sg6
F1.6669
sg213
F1.9944
sg8
F2.6478999999999999
sg214
F2.8986999999999998
sg215
F3.4350000000000001
sg10
F3.2107999999999999
ssI71
(dp285
g5
F2.3799999999999999
sg6
F1.6666000000000001
sg213
F1.9939
sg8
F2.6467999999999998
sg214
F2.8974000000000002
sg215
F3.4329000000000001
sg10
F3.2090000000000001
ssI72
(dp286
g5
F2.3793000000000002
sg6
F1.6662999999999999
sg213
F1.9935
sg8
F2.6459000000000001
sg214
F2.8961000000000001
sg215
F3.4308000000000001
sg10
F3.2073
ssI73
(dp287
g5
F2.3784999999999998
sg6
F1.6659999999999999
sg213
F1.9930000000000001
sg8
F2.6448999999999998
sg214
F2.8948
sg215
F3.4287999999999998
sg10
F3.2056
ssI74
(dp288
g5
F2.3778000000000001
sg6
F1.6657
sg213
F1.9924999999999999
sg8
F2.6438999999999999
sg214
F2.8936000000000002
sg215
F3.4268999999999998
sg10
F3.2040000000000002
ssI75
(dp289
g5
F2.3771
sg6
F1.6654
sg213
F1.9921
sg8
F2.6429999999999998
sg214
F2.8925000000000001
sg215
F3.4249999999999998
sg10
F3.2025000000000001
ssI76
(dp290
g5
F2.3763999999999998
sg6
F1.6652
sg213
F1.9917
sg8
F2.6421000000000001
sg214
F2.8913000000000002
sg215
F3.4232
sg10
F3.2010000000000001
ssI77
(dp291
g5
F2.3757999999999999
sg6
F1.6649
sg213
F1.9913000000000001
sg8
F2.6412
sg214
F2.8902000000000001
sg215
F3.4214000000000002
sg10
F3.1995
ssI78
(dp292
g5
F2.3751000000000002
sg6
F1.6646000000000001
sg213
F1.9908999999999999
sg8
F2.6404000000000001
sg214
F2.8891
sg215
F3.4197000000000002
sg10
F3.198
ssI79
(dp293
g5
F2.3744999999999998
sg6
F1.6644000000000001
sg213
F1.9903999999999999
sg8
F2.6395
sg214
F2.8879999999999999
sg215
F3.4180000000000001
sg10
F3.1966000000000001
ssI80
(dp294
g5
F2.3738999999999999
sg6
F1.6640999999999999
sg213
F1.9901
sg8
F2.6387
sg214
F2.887
sg215
F3.4163999999999999
sg10
F3.1953
ssI81
(dp295
g5
F2.3733
sg6
F1.6638999999999999
sg213
F1.9897
sg8
F2.6379000000000001
sg214
F2.8858999999999999
sg215
F3.4146999999999998
sg10
F3.1939000000000002
ssI82
(dp296
g5
F2.3727
sg6
F1.6636
sg213
F1.9893000000000001
sg8
F2.6371000000000002
sg214
F2.8849999999999998
sg215
F3.4131999999999998
sg10
F3.1926000000000001
ssI83
(dp297
g5
F2.3721000000000001
sg6
F1.6634
sg213
F1.9888999999999999
sg8
F2.6364000000000001
sg214
F2.8839999999999999
sg215
F3.4117000000000002
sg10
F3.1913
ssI84
(dp298
g5
F2.3715999999999999
sg6
F1.6632
sg213
F1.9885999999999999
sg8
F2.6356000000000002
sg214
F2.8831000000000002
sg215
F3.4100999999999999
sg10
F3.1901000000000002
ssI85
(dp299
g5
F2.371
sg6
F1.663
sg213
F1.9883
sg8
F2.6349
sg214
F2.8820999999999999
sg215
F3.4087000000000001
sg10
F3.1888999999999998
ssI86
(dp300
g5
F2.3704999999999998
sg6
F1.6628000000000001
sg213
F1.9879
sg8
F2.6341999999999999
sg214
F2.8813
sg215
F3.4073000000000002
sg10
F3.1877
ssI87
(dp301
g5
F2.3700000000000001
sg6
F1.6626000000000001
sg213
F1.9876
sg8
F2.6335000000000002
sg214
F2.8803999999999998
sg215
F3.4058999999999999
sg10
F3.1865999999999999
ssI88
(dp302
g5
F2.3694999999999999
sg6
F1.6623000000000001
sg213
F1.9873000000000001
sg8
F2.6328
sg214
F2.8795000000000002
sg215
F3.4045999999999998
sg10
F3.1854
ssI89
(dp303
g5
F2.3690000000000002
sg6
F1.6621999999999999
sg213
F1.9870000000000001
sg8
F2.6322000000000001
sg214
F2.8786999999999998
sg215
F3.4032
sg10
F3.1844000000000001
ssI90
(dp304
g5
F2.3685
sg6
F1.6619999999999999
sg213
F1.9866999999999999
sg8
F2.6316000000000002
sg214
F2.8778999999999999
sg215
F3.4020000000000001
sg10
F3.1833
ssI91
(dp305
g5
F2.3679999999999999
sg6
F1.6617999999999999
sg213
F1.9863999999999999
sg8
F2.6309
sg214
F2.8771
sg215
F3.4005999999999998
sg10
F3.1821999999999999
ssI92
(dp306
g5
F2.3675999999999999
sg6
F1.6616
sg213
F1.9861
sg8
F2.6303000000000001
sg214
F2.8763000000000001
sg215
F3.3995000000000002
sg10
F3.1812
ssI93
(dp307
g5
F2.3671000000000002
sg6
F1.6614
sg213
F1.9858
sg8
F2.6297000000000001
sg214
F2.8755000000000002
sg215
F3.3982000000000001
sg10
F3.1802000000000001
ssI94
(dp308
g5
F2.3666999999999998
sg6
F1.6612
sg213
F1.9855
sg8
F2.6292
sg214
F2.8748
sg215
F3.3969999999999998
sg10
F3.1791999999999998
ssI95
(dp309
g5
F2.3662000000000001
sg6
F1.661
sg213
F1.9852000000000001
sg8
F2.6286
sg214
F2.8740999999999999
sg215
F3.3959000000000001
sg10
F3.1781999999999999
ssI96
(dp310
g5
F2.3658000000000001
sg6
F1.6609
sg213
F1.9850000000000001
sg8
F2.6280000000000001
sg214
F2.8734000000000002
sg215
F3.3946999999999998
sg10
F3.1772999999999998
ssI97
(dp311
g5
F2.3654000000000002
sg6
F1.6607000000000001
sg213
F1.9846999999999999
sg8
F2.6274999999999999
sg214
F2.8727
sg215
F3.3936000000000002
sg10
F3.1764000000000001
ssI98
(dp312
g5
F2.3650000000000002
sg6
F1.6606000000000001
sg213
F1.9844999999999999
sg8
F2.6269
sg214
F2.8719999999999999
sg215
F3.3925999999999998
sg10
F3.1755
ssI99
(dp313
g5
F2.3645999999999998
sg6
F1.6604000000000001
sg213
F1.9842
sg8
F2.6263999999999998
sg214
F2.8713000000000002
sg215
F3.3915000000000002
sg10
F3.1745999999999999
ssI100
(dp314
g5
F2.3641999999999999
sg6
F1.6601999999999999
sg213
F1.984
sg8
F2.6259000000000001
sg214
F2.8706
sg215
F3.3904999999999998
sg10
F3.1738
ssI101
(dp315
g5
F2.3637999999999999
sg6
F1.6600999999999999
sg213
F1.9837
sg8
F2.6254
sg214
F2.8700000000000001
sg215
F3.3894000000000002
sg10
F3.1728999999999998
ssI102
(dp316
g5
F2.3635000000000002
sg6
F1.6598999999999999
sg213
F1.9835
sg8
F2.6248999999999998
sg214
F2.8694000000000002
sg215
F3.3885000000000001
sg10
F3.1720000000000002
ssI103
(dp317
g5
F2.3631000000000002
sg6
F1.6597999999999999
sg213
F1.9833000000000001
sg8
F2.6244000000000001
sg214
F2.8687
sg215
F3.3875000000000002
sg10
F3.1711999999999998
ssI104
(dp318
g5
F2.3626999999999998
sg6
F1.6596
sg213
F1.9830000000000001
sg8
F2.6240000000000001
sg214
F2.8681999999999999
sg215
F3.3866000000000001
sg10
F3.1703999999999999
ssI105
(dp319
g5
F2.3624000000000001
sg6
F1.6595
sg213
F1.9827999999999999
sg8
F2.6234999999999999
sg214
F2.8675000000000002
sg215
F3.3856000000000002
sg10
F3.1697000000000002
ssI106
(dp320
g5
F2.3620000000000001
sg6
F1.6593
sg213
F1.9825999999999999
sg8
F2.6230000000000002
sg214
F2.867
sg215
F3.3847
sg10
F3.1688999999999998
ssI107
(dp321
g5
F2.3616999999999999
sg6
F1.6592
sg213
F1.9823999999999999
sg8
F2.6225000000000001
sg214
F2.8664000000000001
sg215
F3.3837999999999999
sg10
F3.1680999999999999
ssI108
(dp322
g5
F2.3614000000000002
sg6
F1.6591
sg213
F1.9822
sg8
F2.6221000000000001
sg214
F2.8658000000000001
sg215
F3.3828999999999998
sg10
F3.1674000000000002
ssI109
(dp323
g5
F2.3611
sg6
F1.6589
sg213
F1.982
sg8
F2.6217000000000001
sg214
F2.8653
sg215
F3.3820000000000001
sg10
F3.1667000000000001
ssI110
(dp324
g5
F2.3607
sg6
F1.6588000000000001
sg213
F1.9818
sg8
F2.6212
sg214
F2.8647
sg215
F3.3812000000000002
sg10
F3.1659999999999999
ssI111
(dp325
g5
F2.3603999999999998
sg6
F1.6587000000000001
sg213
F1.9816
sg8
F2.6208
sg214
F2.8641999999999999
sg215
F3.3803000000000001
sg10
F3.1652999999999998
ssI112
(dp326
g5
F2.3601000000000001
sg6
F1.6586000000000001
sg213
F1.9814000000000001
sg8
F2.6204000000000001
sg214
F2.8637000000000001
sg215
F3.3795000000000002
sg10
F3.1646000000000001
ssI113
(dp327
g5
F2.3597999999999999
sg6
F1.6585000000000001
sg213
F1.9812000000000001
sg8
F2.6200000000000001
sg214
F2.8632
sg215
F3.3786999999999998
sg10
F3.1640000000000001
ssI114
(dp328
g5
F2.3595000000000002
sg6
F1.6583000000000001
sg213
F1.9810000000000001
sg8
F2.6196000000000002
sg214
F2.8626999999999998
sg215
F3.3778999999999999
sg10
F3.1633
ssI115
(dp329
g5
F2.3592
sg6
F1.6581999999999999
sg213
F1.9807999999999999
sg8
F2.6192000000000002
sg214
F2.8622000000000001
sg215
F3.3771
sg10
F3.1625999999999999
ssI116
(dp330
g5
F2.3589000000000002
sg6
F1.6580999999999999
sg213
F1.9805999999999999
sg8
F2.6189
sg214
F2.8616999999999999
sg215
F3.3763999999999998
sg10
F3.1619999999999999
ssI117
(dp331
g5
F2.3586
sg6
F1.6579999999999999
sg213
F1.9804999999999999
sg8
F2.6185
sg214
F2.8612000000000002
sg215
F3.3755999999999999
sg10
F3.1614
ssI118
(dp332
g5
F2.3582999999999998
sg6
F1.6578999999999999
sg213
F1.9802999999999999
sg8
F2.6181000000000001
sg214
F2.8607999999999998
sg215
F3.3748999999999998
sg10
F3.1606999999999998
ssI119
(dp333
g5
F2.3580999999999999
sg6
F1.6577999999999999
sg213
F1.9801
sg8
F2.6177999999999999
sg214
F2.8603000000000001
sg215
F3.3740999999999999
sg10
F3.1600999999999999
ssI120
(dp334
g5
F2.3578000000000001
sg6
F1.6577
sg213
F1.9799
sg8
F2.6173999999999999
sg214
F2.8599000000000001
sg215
F3.3734999999999999
sg10
F3.1595
ssI121
(dp335
g5
F2.3576000000000001
sg6
F1.6575
sg213
F1.9798
sg8
F2.6171000000000002
sg214
F2.8593999999999999
sg215
F3.3727
sg10
F3.1589
ssI122
(dp336
g5
F2.3573
sg6
F1.6574
sg213
F1.9796
sg8
F2.6168
sg214
F2.859
sg215
F3.3721000000000001
sg10
F3.1583999999999999
ssI123
(dp337
g5
F2.3571
sg6
F1.6573
sg213
F1.9794
sg8
F2.6164000000000001
sg214
F2.8584999999999998
sg215
F3.3714
sg10
F3.1577999999999999
ssI124
(dp338
g5
F2.3567999999999998
sg6
F1.6572
sg213
F1.9793000000000001
sg8
F2.6160999999999999
sg214
F2.8582000000000001
sg215
F3.3706999999999998
sg10
F3.1573000000000002
ssI125
(dp339
g5
F2.3565
sg6
F1.6571
sg213
F1.9791000000000001
sg8
F2.6158000000000001
sg214
F2.8576999999999999
sg215
F3.3700000000000001
sg10
F3.1566999999999998
ssI126
(dp340
g5
F2.3563000000000001
sg6
F1.657
sg213
F1.9790000000000001
sg8
F2.6154000000000002
sg214
F2.8573
sg215
F3.3694000000000002
sg10
F3.1562000000000001
ssI127
(dp341
g5
F2.3561000000000001
sg6
F1.657
sg213
F1.9787999999999999
sg8
F2.6151
sg214
F2.8569
sg215
F3.3687999999999998
sg10
F3.1556000000000002
ssI128
(dp342
g5
F2.3559000000000001
sg6
F1.6568000000000001
sg213
F1.9786999999999999
sg8
F2.6147999999999998
sg214
F2.8565
sg215
F3.3681999999999999
sg10
F3.1551
ssI129
(dp343
g5
F2.3555999999999999
sg6
F1.6568000000000001
sg213
F1.9784999999999999
sg8
F2.6145
sg214
F2.8561000000000001
sg215
F3.3675999999999999
sg10
F3.1545999999999998
ssI130
(dp344
g5
F2.3553999999999999
sg6
F1.6567000000000001
sg213
F1.9783999999999999
sg8
F2.6141999999999999
sg214
F2.8557000000000001
sg215
F3.3668999999999998
sg10
F3.1541000000000001
ssI131
(dp345
g5
F2.3552
sg6
F1.6566000000000001
sg213
F1.9782
sg8
F2.6139000000000001
sg214
F2.8553999999999999
sg215
F3.3662999999999998
sg10
F3.1536
ssI132
(dp346
g5
F2.3549000000000002
sg6
F1.6565000000000001
sg213
F1.9781
sg8
F2.6135999999999999
sg214
F2.855
sg215
F3.3658000000000001
sg10
F3.1530999999999998
ssI133
(dp347
g5
F2.3546999999999998
sg6
F1.6564000000000001
sg213
F1.9779
sg8
F2.6133000000000002
sg214
F2.8546
sg215
F3.3652000000000002
sg10
F3.1526000000000001
ssI134
(dp348
g5
F2.3544999999999998
sg6
F1.6563000000000001
sg213
F1.9778
sg8
F2.613
sg214
F2.8542000000000001
sg215
F3.3645999999999998
sg10
F3.1522000000000001
ssI135
(dp349
g5
F2.3542999999999998
sg6
F1.6561999999999999
sg213
F1.9777
sg8
F2.6126999999999998
sg214
F2.8538999999999999
sg215
F3.3641000000000001
sg10
F3.1516999999999999
ssI136
(dp350
g5
F2.3540999999999999
sg6
F1.6560999999999999
sg213
F1.9776
sg8
F2.6124999999999998
sg214
F2.8536000000000001
sg215
F3.3635000000000002
sg10
F3.1511999999999998
ssI137
(dp351
g5
F2.3538999999999999
sg6
F1.6560999999999999
sg213
F1.9774
sg8
F2.6122000000000001
sg214
F2.8532000000000002
sg215
F3.363
sg10
F3.1507999999999998
ssI138
(dp352
g5
F2.3536999999999999
sg6
F1.6559999999999999
sg213
F1.9773000000000001
sg8
F2.6118999999999999
sg214
F2.8529
sg215
F3.3624000000000001
sg10
F3.1503000000000001
ssI139
(dp353
g5
F2.3534999999999999
sg6
F1.6558999999999999
sg213
F1.9772000000000001
sg8
F2.6116999999999999
sg214
F2.8525
sg215
F3.3618999999999999
sg10
F3.1499000000000001
ssI140
(dp354
g5
F2.3532999999999999
sg6
F1.6557999999999999
sg213
F1.9771000000000001
sg8
F2.6114000000000002
sg214
F2.8521999999999998
sg215
F3.3614000000000002
sg10
F3.1495000000000002
ssI141
(dp355
g5
F2.3531
sg6
F1.6556999999999999
sg213
F1.9769000000000001
sg8
F2.6112000000000002
sg214
F2.8519000000000001
sg215
F3.3609
sg10
F3.1490999999999998
ssI142
(dp356
g5
F2.3529
sg6
F1.6556999999999999
sg213
F1.9767999999999999
sg8
F2.6109
sg214
F2.8515999999999999
sg215
F3.3603999999999998
sg10
F3.1486000000000001
ssI143
(dp357
g5
F2.3527
sg6
F1.6556
sg213
F1.9766999999999999
sg8
F2.6105999999999998
sg214
F2.8512
sg215
F3.3599000000000001
sg10
F3.1482000000000001
ssI144
(dp358
g5
F2.3525
sg6
F1.6555
sg213
F1.9765999999999999
sg8
F2.6103999999999998
sg214
F2.851
sg215
F3.3593999999999999
sg10
F3.1478000000000002
ssI145
(dp359
g5
F2.3523000000000001
sg6
F1.6554
sg213
F1.9764999999999999
sg8
F2.6101999999999999
sg214
F2.8506
sg215
F3.3589000000000002
sg10
F3.1474000000000002
ssI146
(dp360
g5
F2.3521999999999998
sg6
F1.6554
sg213
F1.9763999999999999
sg8
F2.6099000000000001
sg214
F2.8502999999999998
sg215
F3.3584000000000001
sg10
F3.1469999999999998
ssI147
(dp361
g5
F2.3519999999999999
sg6
F1.6553
sg213
F1.9762
sg8
F2.6097000000000001
sg214
F2.8500000000000001
sg215
F3.3578999999999999
sg10
F3.1465999999999998
ssI148
(dp362
g5
F2.3517999999999999
sg6
F1.6552
sg213
F1.9761
sg8
F2.6093999999999999
sg214
F2.8496999999999999
sg215
F3.3574999999999999
sg10
F3.1461999999999999
ssI149
(dp363
g5
F2.3515999999999999
sg6
F1.6551
sg213
F1.976
sg8
F2.6092
sg214
F2.8494000000000002
sg215
F3.3570000000000002
sg10
F3.1457999999999999
ssI150
(dp364
g5
F2.3515000000000001
sg6
F1.6551
sg213
F1.9759
sg8
F2.609
sg214
F2.8491
sg215
F3.3565
sg10
F3.1455000000000002
ssI151
(dp365
g5
F2.3513000000000002
sg6
F1.655
sg213
F1.9758
sg8
F2.6088
sg214
F2.8489
sg215
F3.3561000000000001
sg10
F3.1450999999999998
ssI152
(dp366
g5
F2.3511000000000002
sg6
F1.6549
sg213
F1.9757
sg8
F2.6084999999999998
sg214
F2.8485999999999998
sg215
F3.3557000000000001
sg10
F3.1446999999999998
ssI153
(dp367
g5
F2.351
sg6
F1.6549
sg213
F1.9756
sg8
F2.6082999999999998
sg214
F2.8483000000000001
sg215
F3.3552
sg10
F3.1442999999999999
ssI154
(dp368
g5
F2.3508
sg6
F1.6548
sg213
F1.9755
sg8
F2.6080999999999999
sg214
F2.8481000000000001
sg215
F3.3548
sg10
F3.1440000000000001
ssI155
(dp369
g5
F2.3506999999999998
sg6
F1.6547000000000001
sg213
F1.9754
sg8
F2.6078999999999999
sg214
F2.8477999999999999
sg215
F3.3544
sg10
F3.1436000000000002
ssI156
(dp370
g5
F2.3504999999999998
sg6
F1.6547000000000001
sg213
F1.9753000000000001
sg8
F2.6076999999999999
sg214
F2.8475000000000001
sg215
F3.3540000000000001
sg10
F3.1433
ssI157
(dp371
g5
F2.3502999999999998
sg6
F1.6546000000000001
sg213
F1.9752000000000001
sg8
F2.6074999999999999
sg214
F2.8472
sg215
F3.3536000000000001
sg10
F3.1429999999999998
ssI158
(dp372
g5
F2.3502000000000001
sg6
F1.6546000000000001
sg213
F1.9751000000000001
sg8
F2.6073
sg214
F2.847
sg215
F3.3531
sg10
F3.1425999999999998
ssI159
(dp373
g5
F2.3500000000000001
sg6
F1.6545000000000001
sg213
F1.9750000000000001
sg8
F2.6071
sg214
F2.8466999999999998
sg215
F3.3527999999999998
sg10
F3.1423000000000001
ssI160
(dp374
g5
F2.3498999999999999
sg6
F1.6544000000000001
sg213
F1.9749000000000001
sg8
F2.6069
sg214
F2.8464999999999998
sg215
F3.3523000000000001
sg10
F3.1419000000000001
ssI161
(dp375
g5
F2.3496999999999999
sg6
F1.6544000000000001
sg213
F1.9748000000000001
sg8
F2.6067
sg214
F2.8462999999999998
sg215
F3.3519999999999999
sg10
F3.1417000000000002
ssI162
(dp376
g5
F2.3496000000000001
sg6
F1.6543000000000001
sg213
F1.9746999999999999
sg8
F2.6065
sg214
F2.8460000000000001
sg215
F3.3515999999999999
sg10
F3.1413000000000002
ssI163
(dp377
g5
F2.3494999999999999
sg6
F1.6543000000000001
sg213
F1.9745999999999999
sg8
F2.6063000000000001
sg214
F2.8458000000000001
sg215
F3.3512
sg10
F3.141
ssI164
(dp378
g5
F2.3492999999999999
sg6
F1.6541999999999999
sg213
F1.9744999999999999
sg8
F2.6061999999999999
sg214
F2.8454999999999999
sg215
F3.3508
sg10
F3.1406999999999998
ssI165
(dp379
g5
F2.3492000000000002
sg6
F1.6541999999999999
sg213
F1.9743999999999999
sg8
F2.6059999999999999
sg214
F2.8452000000000002
sg215
F3.3504999999999998
sg10
F3.1402999999999999
ssI166
(dp380
g5
F2.3490000000000002
sg6
F1.6540999999999999
sg213
F1.9743999999999999
sg8
F2.6057999999999999
sg214
F2.8450000000000002
sg215
F3.3500999999999999
sg10
F3.1400000000000001
ssI167
(dp381
g5
F2.3489
sg6
F1.6539999999999999
sg213
F1.9742999999999999
sg8
F2.6055999999999999
sg214
F2.8448000000000002
sg215
F3.3496999999999999
sg10
F3.1398000000000001
ssI168
(dp382
g5
F2.3487
sg6
F1.6539999999999999
sg213
F1.9742
sg8
F2.6053999999999999
sg214
F2.8445999999999998
sg215
F3.3494000000000002
sg10
F3.1394000000000002
ssI169
(dp383
g5
F2.3485999999999998
sg6
F1.6538999999999999
sg213
F1.9741
sg8
F2.6052
sg214
F2.8443000000000001
sg215
F3.3490000000000002
sg10
F3.1392000000000002
ssI170
(dp384
g5
F2.3485
sg6
F1.6538999999999999
sg213
F1.974
sg8
F2.6051000000000002
sg214
F2.8441000000000001
sg215
F3.3487
sg10
F3.1387999999999998
ssI171
(dp385
g5
F2.3483999999999998
sg6
F1.6537999999999999
sg213
F1.9739
sg8
F2.6049000000000002
sg214
F2.8439000000000001
sg215
F3.3483000000000001
sg10
F3.1385999999999998
ssI172
(dp386
g5
F2.3481999999999998
sg6
F1.6536999999999999
sg213
F1.9739
sg8
F2.6046999999999998
sg214
F2.8437000000000001
sg215
F3.3479999999999999
sg10
F3.1383000000000001
ssI173
(dp387
g5
F2.3481000000000001
sg6
F1.6536999999999999
sg213
F1.9738
sg8
F2.6046
sg214
F2.8435000000000001
sg215
F3.3477000000000001
sg10
F3.1379999999999999
ssI174
(dp388
g5
F2.3479999999999999
sg6
F1.6536999999999999
sg213
F1.9737
sg8
F2.6044
sg214
F2.8433000000000002
sg215
F3.3473000000000002
sg10
F3.1377000000000002
ssI175
(dp389
g5
F2.3477999999999999
sg6
F1.6536
sg213
F1.9736
sg8
F2.6042000000000001
sg214
F2.843
sg215
F3.347
sg10
F3.1375000000000002
ssI176
(dp390
g5
F2.3477000000000001
sg6
F1.6536
sg213
F1.9735
sg8
F2.6040999999999999
sg214
F2.8429000000000002
sg215
F3.3466
sg10
F3.1372
ssI177
(dp391
g5
F2.3475999999999999
sg6
F1.6535
sg213
F1.9735
sg8
F2.6038999999999999
sg214
F2.8426999999999998
sg215
F3.3464
sg10
F3.1368999999999998
ssI178
(dp392
g5
F2.3475000000000001
sg6
F1.6535
sg213
F1.9734
sg8
F2.6036999999999999
sg214
F2.8424
sg215
F3.3460000000000001
sg10
F3.1366000000000001
ssI179
(dp393
g5
F2.3473999999999999
sg6
F1.6534
sg213
F1.9733000000000001
sg8
F2.6036000000000001
sg214
F2.8422999999999998
sg215
F3.3456999999999999
sg10
F3.1364000000000001
ssI180
(dp394
g5
F2.3472
sg6
F1.6534
sg213
F1.9732000000000001
sg8
F2.6034000000000002
sg214
F2.8420000000000001
sg215
F3.3454000000000002
sg10
F3.1360999999999999
ssI181
(dp395
g5
F2.3471000000000002
sg6
F1.6533
sg213
F1.9731000000000001
sg8
F2.6032999999999999
sg214
F2.8418999999999999
sg215
F3.3451
sg10
F3.1358000000000001
ssI182
(dp396
g5
F2.347
sg6
F1.6533
sg213
F1.9731000000000001
sg8
F2.6031
sg214
F2.8416000000000001
sg215
F3.3448000000000002
sg10
F3.1356000000000002
ssI183
(dp397
g5
F2.3469000000000002
sg6
F1.6532
sg213
F1.9730000000000001
sg8
F2.6030000000000002
sg214
F2.8414999999999999
sg215
F3.3445
sg10
F3.1354000000000002
ssI184
(dp398
g5
F2.3468
sg6
F1.6532
sg213
F1.9729000000000001
sg8
F2.6027999999999998
sg214
F2.8412999999999999
sg215
F3.3441999999999998
sg10
F3.1351
ssI185
(dp399
g5
F2.3466999999999998
sg6
F1.6531
sg213
F1.9729000000000001
sg8
F2.6027
sg214
F2.8411
sg215
F3.3439000000000001
sg10
F3.1349
ssI186
(dp400
g5
F2.3466
sg6
F1.6531
sg213
F1.9728000000000001
sg8
F2.6025
sg214
F2.8409
sg215
F3.3435999999999999
sg10
F3.1345999999999998
ssI187
(dp401
g5
F2.3464999999999998
sg6
F1.6531
sg213
F1.9726999999999999
sg8
F2.6023999999999998
sg214
F2.8407
sg215
F3.3433000000000002
sg10
F3.1343999999999999
ssI188
(dp402
g5
F2.3462999999999998
sg6
F1.653
sg213
F1.9726999999999999
sg8
F2.6021999999999998
sg214
F2.8405999999999998
sg215
F3.343
sg10
F3.1341000000000001
ssI189
(dp403
g5
F2.3462999999999998
sg6
F1.6529
sg213
F1.9725999999999999
sg8
F2.6021000000000001
sg214
F2.8403
sg215
F3.3428
sg10
F3.1339000000000001
ssI190
(dp404
g5
F2.3460999999999999
sg6
F1.6529
sg213
F1.9724999999999999
sg8
F2.6019000000000001
sg214
F2.8401999999999998
sg215
F3.3424999999999998
sg10
F3.1337000000000002
ssI191
(dp405
g5
F2.3460000000000001
sg6
F1.6529
sg213
F1.9724999999999999
sg8
F2.6017999999999999
sg214
F2.8399999999999999
sg215
F3.3422000000000001
sg10
F3.1334
ssI192
(dp406
g5
F2.3458999999999999
sg6
F1.6528
sg213
F1.9723999999999999
sg8
F2.6017000000000001
sg214
F2.8397999999999999
sg215
F3.3418999999999999
sg10
F3.1332
ssI193
(dp407
g5
F2.3458000000000001
sg6
F1.6528
sg213
F1.9722999999999999
sg8
F2.6015000000000001
sg214
F2.8397000000000001
sg215
F3.3416999999999999
sg10
F3.133
ssI194
(dp408
g5
F2.3456999999999999
sg6
F1.6528
sg213
F1.9722999999999999
sg8
F2.6013999999999999
sg214
F2.8395000000000001
sg215
F3.3414000000000001
sg10
F3.1328
ssI195
(dp409
g5
F2.3456000000000001
sg6
F1.6527000000000001
sg213
F1.9722
sg8
F2.6013000000000002
sg214
F2.8393000000000002
sg215
F3.3411
sg10
F3.1326000000000001
ssI196
(dp410
g5
F2.3454999999999999
sg6
F1.6527000000000001
sg213
F1.9721
sg8
F2.6012
sg214
F2.8391999999999999
sg215
F3.3409
sg10
F3.1322999999999999
ssI197
(dp411
g5
F2.3454000000000002
sg6
F1.6526000000000001
sg213
F1.9721
sg8
F2.601
sg214
F2.839
sg215
F3.3405999999999998
sg10
F3.1320999999999999
ssI198
(dp412
g5
F2.3452999999999999
sg6
F1.6526000000000001
sg213
F1.972
sg8
F2.6009000000000002
sg214
F2.8388
sg215
F3.3403
sg10
F3.1318999999999999
ssI199
(dp413
g5
F2.3452000000000002
sg6
F1.6525000000000001
sg213
F1.972
sg8
F2.6008
sg214
F2.8386999999999998
sg215
F3.3401000000000001
sg10
F3.1316999999999999
ssI200
(dp414
g5
F2.3451
sg6
F1.6525000000000001
sg213
F1.9719
sg8
F2.6006999999999998
sg214
F2.8384999999999998
sg215
F3.3397999999999999
sg10
F3.1315
sss.